; ModuleID = '19/872.c'
source_filename = "19/872.c"
target datalayout = "e-m:e-p270:32:32-p271:32:32-p272:64:64-i64:64-f80:128-n8:16:32:64-S128"
target triple = "x86_64-pc-linux-gnu"

@.str = private unnamed_addr constant [4 x i8] c"%s \00", align 1
@.str.1 = private unnamed_addr constant [4 x i8] c"%s\0A\00", align 1

; Function Attrs: noinline nounwind uwtable
define dso_local void @main() #0 {
  %1 = alloca [101 x i8], align 16
  %2 = alloca [101 x i8], align 16
  %3 = alloca [101 x i8], align 16
  %4 = alloca i8*, align 8
  %5 = alloca i8*, align 8
  %6 = getelementptr inbounds [101 x i8], [101 x i8]* %1, i64 0, i64 0
  store i8* %6, i8** %5, align 8
  %7 = getelementptr inbounds [101 x i8], [101 x i8]* %1, i64 0, i64 0
  %8 = call i32 (i8*, ...) bitcast (i32 (...)* @gets to i32 (i8*, ...)*)(i8* %7)
  %9 = getelementptr inbounds [101 x i8], [101 x i8]* %2, i64 0, i64 0
  %10 = call i32 (i8*, ...) bitcast (i32 (...)* @gets to i32 (i8*, ...)*)(i8* %9)
  %11 = getelementptr inbounds [101 x i8], [101 x i8]* %3, i64 0, i64 0
  %12 = call i32 (i8*, ...) bitcast (i32 (...)* @gets to i32 (i8*, ...)*)(i8* %11)
  %13 = getelementptr inbounds [101 x i8], [101 x i8]* %1, i64 0, i64 0
  store i8* %13, i8** %4, align 8
  br label %14

14:                                               ; preds = %53, %0
  %15 = load i8*, i8** %4, align 8
  %16 = load i8, i8* %15, align 1
  %17 = sext i8 %16 to i32
  %18 = icmp eq i32 %17, 32
  br i1 %18, label %19, label %34

19:                                               ; preds = %14
  %20 = load i8*, i8** %4, align 8
  store i8 0, i8* %20, align 1
  %21 = load i8*, i8** %5, align 8
  %22 = getelementptr inbounds [101 x i8], [101 x i8]* %2, i64 0, i64 0
  %23 = call i32 @strcmp(i8* %21, i8* %22) #3
  %24 = icmp eq i32 %23, 0
  br i1 %24, label %25, label %28

25:                                               ; preds = %19
  %26 = getelementptr inbounds [101 x i8], [101 x i8]* %3, i64 0, i64 0
  %27 = call i32 (i8*, ...) @printf(i8* getelementptr inbounds ([4 x i8], [4 x i8]* @.str, i64 0, i64 0), i8* %26)
  br label %31

28:                                               ; preds = %19
  %29 = load i8*, i8** %5, align 8
  %30 = call i32 (i8*, ...) @printf(i8* getelementptr inbounds ([4 x i8], [4 x i8]* @.str, i64 0, i64 0), i8* %29)
  br label %31

31:                                               ; preds = %28, %25
  %32 = load i8*, i8** %4, align 8
  %33 = getelementptr inbounds i8, i8* %32, i64 1
  store i8* %33, i8** %5, align 8
  br label %52

34:                                               ; preds = %14
  %35 = load i8*, i8** %4, align 8
  %36 = load i8, i8* %35, align 1
  %37 = sext i8 %36 to i32
  %38 = icmp eq i32 %37, 0
  br i1 %38, label %39, label %51

39:                                               ; preds = %34
  %40 = load i8*, i8** %5, align 8
  %41 = getelementptr inbounds [101 x i8], [101 x i8]* %2, i64 0, i64 0
  %42 = call i32 @strcmp(i8* %40, i8* %41) #3
  %43 = icmp eq i32 %42, 0
  br i1 %43, label %44, label %47

44:                                               ; preds = %39
  %45 = getelementptr inbounds [101 x i8], [101 x i8]* %3, i64 0, i64 0
  %46 = call i32 (i8*, ...) @printf(i8* getelementptr inbounds ([4 x i8], [4 x i8]* @.str.1, i64 0, i64 0), i8* %45)
  br label %50

47:                                               ; preds = %39
  %48 = load i8*, i8** %5, align 8
  %49 = call i32 (i8*, ...) @printf(i8* getelementptr inbounds ([4 x i8], [4 x i8]* @.str.1, i64 0, i64 0), i8* %48)
  br label %50

50:                                               ; preds = %47, %44
  br label %56

51:                                               ; preds = %34
  br label %52

52:                                               ; preds = %51, %31
  br label %53

53:                                               ; preds = %52
  %54 = load i8*, i8** %4, align 8
  %55 = getelementptr inbounds i8, i8* %54, i32 1
  store i8* %55, i8** %4, align 8
  br label %14

56:                                               ; preds = %50
  ret void
}

declare dso_local i32 @gets(...) #1

; Function Attrs: nounwind readonly
declare dso_local i32 @strcmp(i8*, i8*) #2

declare dso_local i32 @printf(i8*, ...) #1


!llvm.module.flags = !{!0}
!llvm.ident = !{!1}

!0 = !{i32 1, !"wchar_size", i32 4}
!1 = !{!"clang version 10.0.0-4ubuntu1 "}
